; Function Attrs: mustprogress nofree norecurse nosync nounwind willreturn memory(read, argmem: readwrite, inaccessiblemem: none) uwtable
define noundef nonnull align 8 dereferenceable(40) ptr @_ZN12AtomIteratorppEv(ptr noundef nonnull returned align 8 dereferenceable(40) %0) local_unnamed_addr #0 align 2 {
  %2 = getelementptr inbounds i8, ptr %0, i64 32
  %3 = load <2 x i32>, ptr %2, align 8
  %4 = add nsw <2 x i32> %3, <i32 1, i32 1>
  store <2 x i32> %4, ptr %2, align 8
  %5 = getelementptr inbounds i8, ptr %0, i64 16
  %6 = load ptr, ptr %5, align 8
  %7 = load i32, ptr %6, align 8
  %8 = extractelement <2 x i32> %4, i64 0
  %.not = icmp slt i32 %8, %7
  br i1 %.not, label %45, label %9

9:                                                ; preds = %1
  %10 = getelementptr inbounds i8, ptr %6, i64 40
  %11 = load i32, ptr %10, align 8
  %12 = load ptr, ptr %0, align 8
  %13 = getelementptr inbounds i8, ptr %12, i64 760
  %14 = load i32, ptr %13, align 8
  %.not2 = icmp sgt i32 %11, %14
  br i1 %.not2, label %19, label %15

15:                                               ; preds = %9
  %16 = getelementptr inbounds i8, ptr %0, i64 28
  %17 = load i32, ptr %16, align 4
  %18 = add nsw i32 %17, %11
  store i32 %18, ptr %16, align 4
  br label %19

19:                                               ; preds = %15, %9
  %20 = getelementptr inbounds i8, ptr %0, i64 24
  %21 = load i32, ptr %20, align 8
  %22 = add nsw i32 %21, 1
  store i32 %22, ptr %20, align 8
  store i32 0, ptr %2, align 8
  %23 = getelementptr inbounds i8, ptr %12, i64 136
  %24 = getelementptr inbounds i8, ptr %0, i64 8
  %25 = load i64, ptr %24, align 8
  %26 = load ptr, ptr %23, align 8
  %27 = getelementptr inbounds %struct.gmx_molblock_t, ptr %26, i64 %25, i32 1
  %28 = load i32, ptr %27, align 4
  %.not3 = icmp slt i32 %22, %28
  br i1 %.not3, label %45, label %29

29:                                               ; preds = %19
  %30 = add i64 %25, 1
  store i64 %30, ptr %24, align 8
  %31 = getelementptr inbounds i8, ptr %12, i64 144
  %32 = load ptr, ptr %31, align 8
  %33 = load ptr, ptr %23, align 8
  %34 = ptrtoint ptr %32 to i64
  %35 = ptrtoint ptr %33 to i64
  %36 = sub i64 %34, %35
  %37 = sdiv exact i64 %36, 56
  %.not4 = icmp ult i64 %30, %37
  br i1 %.not4, label %38, label %45

38:                                               ; preds = %29
  %39 = getelementptr inbounds i8, ptr %12, i64 112
  %40 = getelementptr inbounds %struct.gmx_molblock_t, ptr %33, i64 %30
  %41 = load i32, ptr %40, align 8
  %42 = sext i32 %41 to i64
  %43 = load ptr, ptr %39, align 8
  %44 = getelementptr inbounds %struct.gmx_moltype_t, ptr %43, i64 %42, i32 1
  store ptr %44, ptr %5, align 8
  store i32 0, ptr %20, align 8
  br label %45

45:                                               ; preds = %1, %38, %19, %29
  ret ptr %0
}